; Function Attrs: mustprogress nounwind uwtable
define hidden void @_ZN11vtableEntry6verifyEP11klassVtableP12outputStream(ptr noundef nonnull align 8 dereferenceable(8) %0, ptr nocapture noundef readonly %1, ptr nocapture noundef readnone %2) local_unnamed_addr #1 align 2 {
  %4 = load ptr, ptr %1, align 8
  %5 = getelementptr inbounds i8, ptr %4, i64 12
  %6 = load i32, ptr %5, align 4
  %7 = icmp slt i32 %6, 5
  br i1 %7, label %8, label %10

8:                                                ; preds = %3
  %9 = tail call noundef zeroext i16 @_ZNK13InstanceKlass13major_versionEv(ptr noundef nonnull align 8 dereferenceable(464) %4) #14
  br label %10

10:                                               ; preds = %8, %3
  %11 = load ptr, ptr %0, align 8
  %.not = icmp eq ptr %11, null
  br i1 %.not, label %_ZNK5Klass13is_subtype_ofEPS_.exit.thread, label %12

12:                                               ; preds = %10
  %13 = load ptr, ptr @tty, align 8
  tail call void @_ZN6Method9verify_onEP12outputStream(ptr noundef nonnull align 8 dereferenceable(88) %11, ptr noundef %13) #14
  %14 = load ptr, ptr %0, align 8
  %15 = getelementptr inbounds i8, ptr %14, i64 8
  %16 = load ptr, ptr %15, align 8
  %17 = getelementptr inbounds i8, ptr %16, i64 8
  %18 = load ptr, ptr %17, align 8
  %19 = getelementptr inbounds i8, ptr %18, i64 24
  %20 = load ptr, ptr %19, align 8
  %21 = getelementptr inbounds i8, ptr %20, i64 20
  %22 = load i32, ptr %21, align 4
  %23 = zext i32 %22 to i64
  %24 = getelementptr inbounds i8, ptr %4, i64 %23
  %25 = load ptr, ptr %24, align 8
  %26 = icmp eq ptr %25, %20
  br i1 %26, label %_ZNK5Klass13is_subtype_ofEPS_.exit.thread, label %27

27:                                               ; preds = %12
  %.not.i = icmp eq i32 %22, 32
  br i1 %.not.i, label %_ZNK5Klass13is_subtype_ofEPS_.exit, label %_ZNK5Klass13is_subtype_ofEPS_.exit.thread6

_ZNK5Klass13is_subtype_ofEPS_.exit:               ; preds = %27
  %28 = tail call noundef zeroext i1 @_ZNK5Klass23search_secondary_supersEPS_(ptr noundef nonnull align 8 dereferenceable(196) %4, ptr noundef nonnull %20) #14
  br i1 %28, label %_ZNK5Klass13is_subtype_ofEPS_.exit.thread, label %_ZNK5Klass13is_subtype_ofEPS_.exit.thread6

_ZNK5Klass13is_subtype_ofEPS_.exit.thread6:       ; preds = %27, %_ZNK5Klass13is_subtype_ofEPS_.exit
  %29 = load ptr, ptr @g_assert_poison, align 8
  store i8 88, ptr %29, align 1
  %30 = ptrtoint ptr %0 to i64
  tail call void (i32, ptr, i32, ptr, ...) @_Z12report_fatal11VMErrorTypePKciS1_z(i32 noundef -536870912, ptr noundef nonnull @.str.6, i32 noundef 1615, ptr noundef nonnull @.str.29, i64 noundef %30) #15
  unreachable

_ZNK5Klass13is_subtype_ofEPS_.exit.thread:        ; preds = %12, %_ZNK5Klass13is_subtype_ofEPS_.exit, %10
  ret void
}